; Function Attrs: mustprogress nofree norecurse nosync nounwind memory(argmem: readwrite) uwtable
define void @_ZN5folly6crypto6detail13MathOperationILNS1_10MathEngineE1EE16clearPaddingBitsEmNS_5RangeIPhEE(i64 noundef %0, ptr %1, ptr %2) local_unnamed_addr #4 align 2 personality ptr @__gxx_personality_v0 {
  %4 = alloca %"struct.std::array", align 64
  %5 = icmp eq i64 %0, -1
  br i1 %5, label %20, label %6

6:                                                ; preds = %3
  call void @llvm.lifetime.start.p0(i64 64, ptr nonnull %4) #6
  %7 = ptrtoint ptr %2 to i64
  %8 = ptrtoint ptr %1 to i64
  %9 = sub i64 %7, %8
  %.not = icmp eq ptr %2, %1
  br i1 %.not, label %._crit_edge, label %.lr.ph

._crit_edge:                                      ; preds = %11, %6
  call void @llvm.lifetime.end.p0(i64 64, ptr nonnull %4) #6
  br label %20

.lr.ph:                                           ; preds = %6, %11
  %.01015 = phi i64 [ %12, %11 ], [ 0, %6 ]
  %10 = getelementptr inbounds nuw i8, ptr %1, i64 %.01015
  br label %14

11:                                               ; preds = %14
  call void @llvm.memcpy.p0.p0.i64(ptr noundef nonnull align 1 dereferenceable(64) %10, ptr noundef nonnull align 64 dereferenceable(64) %4, i64 64, i1 false)
  %12 = add i64 %.01015, 64
  %13 = icmp ult i64 %12, %9
  br i1 %13, label %.lr.ph, label %._crit_edge, !llvm.loop !24

14:                                               ; preds = %.lr.ph, %14
  %.014 = phi i64 [ 0, %.lr.ph ], [ %19, %14 ]
  %15 = getelementptr inbounds nuw i64, ptr %10, i64 %.014
  %16 = load i64, ptr %15, align 8, !tbaa !15
  %17 = and i64 %16, %0
  %18 = getelementptr inbounds nuw [8 x i64], ptr %4, i64 0, i64 %.014
  store i64 %17, ptr %18, align 8, !tbaa !15
  %19 = add nuw nsw i64 %.014, 1
  %exitcond.not = icmp eq i64 %19, 8
  br i1 %exitcond.not, label %11, label %14, !llvm.loop !25

20:                                               ; preds = %3, %._crit_edge
  ret void
}